; ModuleID = '31/1584.c'
source_filename = "31/1584.c"
target datalayout = "e-m:e-p270:32:32-p271:32:32-p272:64:64-i64:64-f80:128-n8:16:32:64-S128"
target triple = "x86_64-pc-linux-gnu"

%struct.student = type { [100 x i8], %struct.student* }

@p2 = common dso_local global %struct.student* null, align 8
@p1 = common dso_local global %struct.student* null, align 8
@.str = private unnamed_addr constant [4 x i8] c"end\00", align 1
@head = common dso_local global %struct.student* null, align 8
@.str.1 = private unnamed_addr constant [4 x i8] c"%s\0A\00", align 1

; Function Attrs: noinline nounwind uwtable
define dso_local i32 @main() #0 {
  %1 = alloca i32, align 4
  %2 = alloca i32, align 4
  store i32 0, i32* %1, align 4
  store i32 0, i32* %2, align 4
  %3 = call noalias i8* @malloc(i64 100) #4
  %4 = bitcast i8* %3 to %struct.student*
  store %struct.student* %4, %struct.student** @p2, align 8
  store %struct.student* %4, %struct.student** @p1, align 8
  %5 = load %struct.student*, %struct.student** @p1, align 8
  %6 = getelementptr inbounds %struct.student, %struct.student* %5, i32 0, i32 0
  %7 = getelementptr inbounds [100 x i8], [100 x i8]* %6, i64 0, i64 0
  %8 = call i32 (i8*, ...) bitcast (i32 (...)* @gets to i32 (i8*, ...)*)(i8* %7)
  %9 = load %struct.student*, %struct.student** @p2, align 8
  %10 = getelementptr inbounds %struct.student, %struct.student* %9, i32 0, i32 1
  store %struct.student* null, %struct.student** %10, align 8
  br label %11

11:                                               ; preds = %0, %32
  %12 = call noalias i8* @malloc(i64 100) #4
  %13 = bitcast i8* %12 to %struct.student*
  store %struct.student* %13, %struct.student** @p1, align 8
  %14 = load %struct.student*, %struct.student** @p1, align 8
  %15 = getelementptr inbounds %struct.student, %struct.student* %14, i32 0, i32 0
  %16 = getelementptr inbounds [100 x i8], [100 x i8]* %15, i64 0, i64 0
  %17 = call i32 (i8*, ...) bitcast (i32 (...)* @gets to i32 (i8*, ...)*)(i8* %16)
  %18 = load %struct.student*, %struct.student** @p2, align 8
  %19 = load %struct.student*, %struct.student** @p1, align 8
  %20 = getelementptr inbounds %struct.student, %struct.student* %19, i32 0, i32 1
  store %struct.student* %18, %struct.student** %20, align 8
  %21 = load %struct.student*, %struct.student** @p1, align 8
  %22 = getelementptr inbounds %struct.student, %struct.student* %21, i32 0, i32 0
  %23 = getelementptr inbounds [100 x i8], [100 x i8]* %22, i64 0, i64 0
  %24 = call i32 @strcmp(i8* %23, i8* getelementptr inbounds ([4 x i8], [4 x i8]* @.str, i64 0, i64 0)) #5
  %25 = icmp eq i32 %24, 0
  br i1 %25, label %26, label %30

26:                                               ; preds = %11
  %27 = load %struct.student*, %struct.student** @p1, align 8
  %28 = getelementptr inbounds %struct.student, %struct.student* %27, i32 0, i32 1
  %29 = load %struct.student*, %struct.student** %28, align 8
  store %struct.student* %29, %struct.student** @head, align 8
  br label %33

30:                                               ; preds = %11
  %31 = load %struct.student*, %struct.student** @p1, align 8
  store %struct.student* %31, %struct.student** @p2, align 8
  br label %32

32:                                               ; preds = %30
  br label %11

33:                                               ; preds = %26
  %34 = load %struct.student*, %struct.student** @head, align 8
  store %struct.student* %34, %struct.student** @p1, align 8
  br label %35

35:                                               ; preds = %38, %33
  %36 = load %struct.student*, %struct.student** @p1, align 8
  %37 = icmp ne %struct.student* %36, null
  br i1 %37, label %38, label %46

38:                                               ; preds = %35
  %39 = load %struct.student*, %struct.student** @p1, align 8
  %40 = getelementptr inbounds %struct.student, %struct.student* %39, i32 0, i32 0
  %41 = getelementptr inbounds [100 x i8], [100 x i8]* %40, i64 0, i64 0
  %42 = call i32 (i8*, ...) @printf(i8* getelementptr inbounds ([4 x i8], [4 x i8]* @.str.1, i64 0, i64 0), i8* %41)
  %43 = load %struct.student*, %struct.student** @p1, align 8
  %44 = getelementptr inbounds %struct.student, %struct.student* %43, i32 0, i32 1
  %45 = load %struct.student*, %struct.student** %44, align 8
  store %struct.student* %45, %struct.student** @p1, align 8
  br label %35

46:                                               ; preds = %35
  %47 = load i32, i32* %1, align 4
  ret i32 %47
}

; Function Attrs: nounwind
declare dso_local noalias i8* @malloc(i64) #1

declare dso_local i32 @gets(...) #2

; Function Attrs: nounwind readonly
declare dso_local i32 @strcmp(i8*, i8*) #3

declare dso_local i32 @printf(i8*, ...) #2


!llvm.module.flags = !{!0}
!llvm.ident = !{!1}

!0 = !{i32 1, !"wchar_size", i32 4}
!1 = !{!"clang version 10.0.0-4ubuntu1 "}
