; ModuleID = 'source-C-CXX/30/1584.c'
source_filename = "source-C-CXX/30/1584.c"
target datalayout = "e-m:e-p270:32:32-p271:32:32-p272:64:64-i64:64-f80:128-n8:16:32:64-S128"
target triple = "x86_64-pc-linux-gnu"

%struct.student = type { [100 x i8], %struct.student* }

@p2 = dso_local local_unnamed_addr global %struct.student* null, align 8
@p1 = dso_local local_unnamed_addr global %struct.student* null, align 8
@.str = private unnamed_addr constant [4 x i8] c"end\00", align 1
@head = dso_local local_unnamed_addr global %struct.student* null, align 8

; Function Attrs: nounwind sspstrong uwtable
define dso_local i32 @main() local_unnamed_addr #0 {
  %1 = tail call noalias align 16 dereferenceable_or_null(100) i8* @malloc(i64 100) #5
  %2 = bitcast i8* %1 to %struct.student*
  store i8* %1, i8** bitcast (%struct.student** @p2 to i8**), align 8, !tbaa !5
  store i8* %1, i8** bitcast (%struct.student** @p1 to i8**), align 8, !tbaa !5
  %3 = getelementptr inbounds %struct.student, %struct.student* %2, i64 0, i32 0, i64 0
  %4 = tail call i32 (i8*, ...) bitcast (i32 (...)* @gets to i32 (i8*, ...)*)(i8* %3) #5
  %5 = load %struct.student*, %struct.student** @p2, align 8, !tbaa !5
  %6 = getelementptr inbounds %struct.student, %struct.student* %5, i64 0, i32 1
  store %struct.student* null, %struct.student** %6, align 8, !tbaa !9
  %7 = tail call noalias align 16 dereferenceable_or_null(100) i8* @malloc(i64 100) #5
  %8 = bitcast i8* %7 to %struct.student*
  store i8* %7, i8** bitcast (%struct.student** @p1 to i8**), align 8, !tbaa !5
  %9 = getelementptr inbounds %struct.student, %struct.student* %8, i64 0, i32 0, i64 0
  %10 = tail call i32 (i8*, ...) bitcast (i32 (...)* @gets to i32 (i8*, ...)*)(i8* %9) #5
  %11 = load %struct.student*, %struct.student** @p2, align 8, !tbaa !5
  %12 = load %struct.student*, %struct.student** @p1, align 8, !tbaa !5
  %13 = getelementptr inbounds %struct.student, %struct.student* %12, i64 0, i32 1
  store %struct.student* %11, %struct.student** %13, align 8, !tbaa !9
  %14 = getelementptr inbounds %struct.student, %struct.student* %12, i64 0, i32 0, i64 0
  %15 = tail call i32 @strcmp(i8* noundef nonnull dereferenceable(1) %14, i8* noundef nonnull dereferenceable(4) getelementptr inbounds ([4 x i8], [4 x i8]* @.str, i64 0, i64 0)) #6
  %16 = icmp eq i32 %15, 0
  br i1 %16, label %17, label %20

17:                                               ; preds = %20, %0
  %18 = phi %struct.student* [ %11, %0 ], [ %26, %20 ]
  store %struct.student* %18, %struct.student** @head, align 8, !tbaa !5
  store %struct.student* %18, %struct.student** @p1, align 8, !tbaa !5
  %19 = icmp eq %struct.student* %18, null
  br i1 %19, label %40, label %32

20:                                               ; preds = %0, %20
  %21 = phi %struct.student* [ %27, %20 ], [ %12, %0 ]
  store %struct.student* %21, %struct.student** @p2, align 8, !tbaa !5
  %22 = tail call noalias align 16 dereferenceable_or_null(100) i8* @malloc(i64 100) #5
  %23 = bitcast i8* %22 to %struct.student*
  store i8* %22, i8** bitcast (%struct.student** @p1 to i8**), align 8, !tbaa !5
  %24 = getelementptr inbounds %struct.student, %struct.student* %23, i64 0, i32 0, i64 0
  %25 = tail call i32 (i8*, ...) bitcast (i32 (...)* @gets to i32 (i8*, ...)*)(i8* %24) #5
  %26 = load %struct.student*, %struct.student** @p2, align 8, !tbaa !5
  %27 = load %struct.student*, %struct.student** @p1, align 8, !tbaa !5
  %28 = getelementptr inbounds %struct.student, %struct.student* %27, i64 0, i32 1
  store %struct.student* %26, %struct.student** %28, align 8, !tbaa !9
  %29 = getelementptr inbounds %struct.student, %struct.student* %27, i64 0, i32 0, i64 0
  %30 = tail call i32 @strcmp(i8* noundef nonnull dereferenceable(1) %29, i8* noundef nonnull dereferenceable(4) getelementptr inbounds ([4 x i8], [4 x i8]* @.str, i64 0, i64 0)) #6
  %31 = icmp eq i32 %30, 0
  br i1 %31, label %17, label %20

32:                                               ; preds = %17, %32
  %33 = phi %struct.student* [ %38, %32 ], [ %18, %17 ]
  %34 = getelementptr inbounds %struct.student, %struct.student* %33, i64 0, i32 0, i64 0
  %35 = tail call i32 @puts(i8* nonnull %34)
  %36 = load %struct.student*, %struct.student** @p1, align 8, !tbaa !5
  %37 = getelementptr inbounds %struct.student, %struct.student* %36, i64 0, i32 1
  %38 = load %struct.student*, %struct.student** %37, align 8, !tbaa !9
  store %struct.student* %38, %struct.student** @p1, align 8, !tbaa !5
  %39 = icmp eq %struct.student* %38, null
  br i1 %39, label %40, label %32, !llvm.loop !11

40:                                               ; preds = %32, %17
  ret i32 0
}

; Function Attrs: inaccessiblememonly mustprogress nofree nounwind willreturn
declare noalias noundef align 16 i8* @malloc(i64 noundef) local_unnamed_addr #1

declare i32 @gets(...) local_unnamed_addr #2

; Function Attrs: argmemonly mustprogress nofree nounwind readonly willreturn
declare i32 @strcmp(i8* nocapture, i8* nocapture) local_unnamed_addr #3

; Function Attrs: nofree nounwind
declare noundef i32 @puts(i8* nocapture noundef readonly) local_unnamed_addr #4


!llvm.module.flags = !{!0, !1, !2, !3}
!llvm.ident = !{!4}

!0 = !{i32 1, !"wchar_size", i32 4}
!1 = !{i32 7, !"PIC Level", i32 2}
!2 = !{i32 7, !"PIE Level", i32 2}
!3 = !{i32 7, !"uwtable", i32 1}
!4 = !{!"clang version 13.0.0"}
!5 = !{!6, !6, i64 0}
!6 = !{!"any pointer", !7, i64 0}
!7 = !{!"omnipotent char", !8, i64 0}
!8 = !{!"Simple C/C++ TBAA"}
!9 = !{!10, !6, i64 104}
!10 = !{!"student", !7, i64 0, !6, i64 104}
!11 = distinct !{!11, !12}
!12 = !{!"llvm.loop.mustprogress"}
